; ModuleID = '4/1701.c'
source_filename = "4/1701.c"
target datalayout = "e-m:e-p270:32:32-p271:32:32-p272:64:64-i64:64-f80:128-n8:16:32:64-S128"
target triple = "x86_64-pc-linux-gnu"

@.str = private unnamed_addr constant [6 x i8] c"%d %d\00", align 1
@.str.1 = private unnamed_addr constant [3 x i8] c"%d\00", align 1
@.str.2 = private unnamed_addr constant [4 x i8] c"%d\0A\00", align 1

; Function Attrs: noinline nounwind uwtable
define dso_local void @main() #0 {
  %1 = alloca i32, align 4
  %2 = alloca i32, align 4
  %3 = alloca i32, align 4
  %4 = alloca i32, align 4
  %5 = alloca i32, align 4
  %6 = alloca [100 x i32]*, align 8
  %7 = call noalias i8* @malloc(i64 40000) #3
  %8 = bitcast i8* %7 to [100 x i32]*
  store [100 x i32]* %8, [100 x i32]** %6, align 8
  %9 = call i32 (i8*, ...) @__isoc99_scanf(i8* getelementptr inbounds ([6 x i8], [6 x i8]* @.str, i64 0, i64 0), i32* %1, i32* %2)
  store i32 0, i32* %3, align 4
  br label %10

10:                                               ; preds = %33, %0
  %11 = load i32, i32* %3, align 4
  %12 = load i32, i32* %1, align 4
  %13 = icmp slt i32 %11, %12
  br i1 %13, label %14, label %36

14:                                               ; preds = %10
  store i32 0, i32* %4, align 4
  br label %15

15:                                               ; preds = %29, %14
  %16 = load i32, i32* %4, align 4
  %17 = load i32, i32* %2, align 4
  %18 = icmp slt i32 %16, %17
  br i1 %18, label %19, label %32

19:                                               ; preds = %15
  %20 = load [100 x i32]*, [100 x i32]** %6, align 8
  %21 = load i32, i32* %3, align 4
  %22 = sext i32 %21 to i64
  %23 = getelementptr inbounds [100 x i32], [100 x i32]* %20, i64 %22
  %24 = getelementptr inbounds [100 x i32], [100 x i32]* %23, i64 0, i64 0
  %25 = load i32, i32* %4, align 4
  %26 = sext i32 %25 to i64
  %27 = getelementptr inbounds i32, i32* %24, i64 %26
  %28 = call i32 (i8*, ...) @__isoc99_scanf(i8* getelementptr inbounds ([3 x i8], [3 x i8]* @.str.1, i64 0, i64 0), i32* %27)
  br label %29

29:                                               ; preds = %19
  %30 = load i32, i32* %4, align 4
  %31 = add nsw i32 %30, 1
  store i32 %31, i32* %4, align 4
  br label %15

32:                                               ; preds = %15
  br label %33

33:                                               ; preds = %32
  %34 = load i32, i32* %3, align 4
  %35 = add nsw i32 %34, 1
  store i32 %35, i32* %3, align 4
  br label %10

36:                                               ; preds = %10
  store i32 0, i32* %5, align 4
  br label %37

37:                                               ; preds = %70, %36
  %38 = load i32, i32* %5, align 4
  %39 = load i32, i32* %2, align 4
  %40 = sub nsw i32 %39, 1
  %41 = icmp sle i32 %38, %40
  br i1 %41, label %42, label %73

42:                                               ; preds = %37
  store i32 0, i32* %3, align 4
  %43 = load i32, i32* %5, align 4
  store i32 %43, i32* %4, align 4
  br label %44

44:                                               ; preds = %54, %42
  %45 = load i32, i32* %4, align 4
  %46 = icmp sge i32 %45, 0
  br i1 %46, label %47, label %52

47:                                               ; preds = %44
  %48 = load i32, i32* %3, align 4
  %49 = load i32, i32* %1, align 4
  %50 = sub nsw i32 %49, 1
  %51 = icmp sle i32 %48, %50
  br label %52

52:                                               ; preds = %47, %44
  %53 = phi i1 [ false, %44 ], [ %51, %47 ]
  br i1 %53, label %54, label %69

54:                                               ; preds = %52
  %55 = load [100 x i32]*, [100 x i32]** %6, align 8
  %56 = load i32, i32* %3, align 4
  %57 = sext i32 %56 to i64
  %58 = getelementptr inbounds [100 x i32], [100 x i32]* %55, i64 %57
  %59 = getelementptr inbounds [100 x i32], [100 x i32]* %58, i64 0, i64 0
  %60 = load i32, i32* %4, align 4
  %61 = sext i32 %60 to i64
  %62 = getelementptr inbounds i32, i32* %59, i64 %61
  %63 = load i32, i32* %62, align 4
  %64 = call i32 (i8*, ...) @printf(i8* getelementptr inbounds ([4 x i8], [4 x i8]* @.str.2, i64 0, i64 0), i32 %63)
  %65 = load i32, i32* %3, align 4
  %66 = add nsw i32 %65, 1
  store i32 %66, i32* %3, align 4
  %67 = load i32, i32* %4, align 4
  %68 = add nsw i32 %67, -1
  store i32 %68, i32* %4, align 4
  br label %44

69:                                               ; preds = %52
  br label %70

70:                                               ; preds = %69
  %71 = load i32, i32* %5, align 4
  %72 = add nsw i32 %71, 1
  store i32 %72, i32* %5, align 4
  br label %37

73:                                               ; preds = %37
  store i32 1, i32* %5, align 4
  br label %74

74:                                               ; preds = %109, %73
  %75 = load i32, i32* %5, align 4
  %76 = load i32, i32* %1, align 4
  %77 = sub nsw i32 %76, 1
  %78 = icmp sle i32 %75, %77
  br i1 %78, label %79, label %112

79:                                               ; preds = %74
  %80 = load i32, i32* %2, align 4
  %81 = sub nsw i32 %80, 1
  store i32 %81, i32* %4, align 4
  %82 = load i32, i32* %5, align 4
  store i32 %82, i32* %3, align 4
  br label %83

83:                                               ; preds = %93, %79
  %84 = load i32, i32* %4, align 4
  %85 = icmp sge i32 %84, 0
  br i1 %85, label %86, label %91

86:                                               ; preds = %83
  %87 = load i32, i32* %3, align 4
  %88 = load i32, i32* %1, align 4
  %89 = sub nsw i32 %88, 1
  %90 = icmp sle i32 %87, %89
  br label %91

91:                                               ; preds = %86, %83
  %92 = phi i1 [ false, %83 ], [ %90, %86 ]
  br i1 %92, label %93, label %108

93:                                               ; preds = %91
  %94 = load [100 x i32]*, [100 x i32]** %6, align 8
  %95 = load i32, i32* %3, align 4
  %96 = sext i32 %95 to i64
  %97 = getelementptr inbounds [100 x i32], [100 x i32]* %94, i64 %96
  %98 = getelementptr inbounds [100 x i32], [100 x i32]* %97, i64 0, i64 0
  %99 = load i32, i32* %4, align 4
  %100 = sext i32 %99 to i64
  %101 = getelementptr inbounds i32, i32* %98, i64 %100
  %102 = load i32, i32* %101, align 4
  %103 = call i32 (i8*, ...) @printf(i8* getelementptr inbounds ([4 x i8], [4 x i8]* @.str.2, i64 0, i64 0), i32 %102)
  %104 = load i32, i32* %3, align 4
  %105 = add nsw i32 %104, 1
  store i32 %105, i32* %3, align 4
  %106 = load i32, i32* %4, align 4
  %107 = add nsw i32 %106, -1
  store i32 %107, i32* %4, align 4
  br label %83

108:                                              ; preds = %91
  br label %109

109:                                              ; preds = %108
  %110 = load i32, i32* %5, align 4
  %111 = add nsw i32 %110, 1
  store i32 %111, i32* %5, align 4
  br label %74

112:                                              ; preds = %74
  ret void
}

; Function Attrs: nounwind
declare dso_local noalias i8* @malloc(i64) #1

declare dso_local i32 @__isoc99_scanf(i8*, ...) #2

declare dso_local i32 @printf(i8*, ...) #2


!llvm.module.flags = !{!0}
!llvm.ident = !{!1}

!0 = !{i32 1, !"wchar_size", i32 4}
!1 = !{!"clang version 10.0.0-4ubuntu1 "}
